target datalayout = "e-m:e-p270:32:32-p271:32:32-p272:64:64-i64:64-i128:128-f80:128-n8:16:32:64-S128"
target triple = "x86_64-pc-linux-gnu"

%class.b3QuantizedBvh = type <{ ptr, [8 x i8], %class.b3Vector3, %class.b3Vector3, %class.b3Vector3, i32, i32, i8, [7 x i8], %class.b3AlignedObjectArray, %class.b3AlignedObjectArray, %class.b3AlignedObjectArray.0, %class.b3AlignedObjectArray.0, i32, [4 x i8], %class.b3AlignedObjectArray.2, i32, [4 x i8] }>
%class.b3Vector3 = type { %union.anon }
%union.anon = type { [4 x float] }
%class.b3AlignedObjectArray = type <{ [4 x i8], i32, i32, [4 x i8], ptr, i8, [7 x i8] }>
%class.b3AlignedObjectArray.0 = type <{ [4 x i8], i32, i32, [4 x i8], ptr, i8, [7 x i8] }>
%class.b3AlignedObjectArray.2 = type <{ [4 x i8], i32, i32, [4 x i8], ptr, i8, [7 x i8] }>

; Function Attrs: inlinehint mustprogress nounwind uwtable
define linkonce_odr dso_local void @_ZN9b3Vector38setValueERKfS1_S1_(ptr noundef nonnull align 16 dereferenceable(16) %0, ptr noundef nonnull align 4 dereferenceable(4) %1, ptr noundef nonnull align 4 dereferenceable(4) %2, ptr noundef nonnull align 4 dereferenceable(4) %3) #1 comdat align 2 {
  %5 = alloca ptr, align 8
  %6 = alloca ptr, align 8
  %7 = alloca ptr, align 8
  %8 = alloca ptr, align 8
  store ptr %0, ptr %5, align 8, !tbaa !37
  store ptr %1, ptr %6, align 8, !tbaa !39
  store ptr %2, ptr %7, align 8, !tbaa !39
  store ptr %3, ptr %8, align 8, !tbaa !39
  %9 = load ptr, ptr %5, align 8
  %10 = load ptr, ptr %6, align 8, !tbaa !39
  %11 = load float, ptr %10, align 4, !tbaa !29
  %12 = getelementptr inbounds nuw %class.b3Vector3, ptr %9, i32 0, i32 0
  %13 = getelementptr inbounds [4 x float], ptr %12, i64 0, i64 0
  store float %11, ptr %13, align 16, !tbaa !41
  %14 = load ptr, ptr %7, align 8, !tbaa !39
  %15 = load float, ptr %14, align 4, !tbaa !29
  %16 = getelementptr inbounds nuw %class.b3Vector3, ptr %9, i32 0, i32 0
  %17 = getelementptr inbounds [4 x float], ptr %16, i64 0, i64 1
  store float %15, ptr %17, align 4, !tbaa !41
  %18 = load ptr, ptr %8, align 8, !tbaa !39
  %19 = load float, ptr %18, align 4, !tbaa !29
  %20 = getelementptr inbounds nuw %class.b3Vector3, ptr %9, i32 0, i32 0
  %21 = getelementptr inbounds [4 x float], ptr %20, i64 0, i64 2
  store float %19, ptr %21, align 8, !tbaa !41
  %22 = getelementptr inbounds nuw %class.b3Vector3, ptr %9, i32 0, i32 0
  %23 = getelementptr inbounds [4 x float], ptr %22, i64 0, i64 3
  store float 0.000000e+00, ptr %23, align 4, !tbaa !41
  ret void
}

; Function Attrs: inlinehint mustprogress nounwind uwtable
define linkonce_odr dso_local { <2 x float>, <2 x float> } @_ZdvRK9b3Vector3S1_(ptr noundef nonnull align 16 dereferenceable(16) %0, ptr noundef nonnull align 16 dereferenceable(16) %1) #7 comdat {
  %3 = alloca %class.b3Vector3, align 16
  %4 = alloca ptr, align 8
  %5 = alloca ptr, align 8
  store ptr %0, ptr %4, align 8, !tbaa !37
  store ptr %1, ptr %5, align 8, !tbaa !37
  %6 = load ptr, ptr %4, align 8, !tbaa !37
  %7 = getelementptr inbounds nuw %class.b3Vector3, ptr %6, i32 0, i32 0
  %8 = getelementptr inbounds [4 x float], ptr %7, i64 0, i64 0
  %9 = load float, ptr %8, align 16, !tbaa !41
  %10 = load ptr, ptr %5, align 8, !tbaa !37
  %11 = getelementptr inbounds nuw %class.b3Vector3, ptr %10, i32 0, i32 0
  %12 = getelementptr inbounds [4 x float], ptr %11, i64 0, i64 0
  %13 = load float, ptr %12, align 16, !tbaa !41
  %14 = fdiv float %9, %13
  %15 = load ptr, ptr %4, align 8, !tbaa !37
  %16 = getelementptr inbounds nuw %class.b3Vector3, ptr %15, i32 0, i32 0
  %17 = getelementptr inbounds [4 x float], ptr %16, i64 0, i64 1
  %18 = load float, ptr %17, align 4, !tbaa !41
  %19 = load ptr, ptr %5, align 8, !tbaa !37
  %20 = getelementptr inbounds nuw %class.b3Vector3, ptr %19, i32 0, i32 0
  %21 = getelementptr inbounds [4 x float], ptr %20, i64 0, i64 1
  %22 = load float, ptr %21, align 4, !tbaa !41
  %23 = fdiv float %18, %22
  %24 = load ptr, ptr %4, align 8, !tbaa !37
  %25 = getelementptr inbounds nuw %class.b3Vector3, ptr %24, i32 0, i32 0
  %26 = getelementptr inbounds [4 x float], ptr %25, i64 0, i64 2
  %27 = load float, ptr %26, align 8, !tbaa !41
  %28 = load ptr, ptr %5, align 8, !tbaa !37
  %29 = getelementptr inbounds nuw %class.b3Vector3, ptr %28, i32 0, i32 0
  %30 = getelementptr inbounds [4 x float], ptr %29, i64 0, i64 2
  %31 = load float, ptr %30, align 8, !tbaa !41
  %32 = fdiv float %27, %31
  %33 = call { <2 x float>, <2 x float> } @_Z13b3MakeVector3fff(float noundef %14, float noundef %23, float noundef %32)
  %34 = getelementptr inbounds nuw %class.b3Vector3, ptr %3, i32 0, i32 0
  %35 = getelementptr inbounds nuw %union.anon, ptr %34, i32 0, i32 0
  %36 = getelementptr inbounds nuw { <2 x float>, <2 x float> }, ptr %35, i32 0, i32 0
  %37 = extractvalue { <2 x float>, <2 x float> } %33, 0
  store <2 x float> %37, ptr %36, align 16
  %38 = getelementptr inbounds nuw { <2 x float>, <2 x float> }, ptr %35, i32 0, i32 1
  %39 = extractvalue { <2 x float>, <2 x float> } %33, 1
  store <2 x float> %39, ptr %38, align 8
  %40 = getelementptr inbounds nuw %class.b3Vector3, ptr %3, i32 0, i32 0
  %41 = getelementptr inbounds nuw %union.anon, ptr %40, i32 0, i32 0
  %42 = load { <2 x float>, <2 x float> }, ptr %41, align 16
  ret { <2 x float>, <2 x float> } %42
}

; Function Attrs: inlinehint mustprogress nounwind uwtable
define linkonce_odr dso_local { <2 x float>, <2 x float> } @_ZplRK9b3Vector3S1_(ptr noundef nonnull align 16 dereferenceable(16) %0, ptr noundef nonnull align 16 dereferenceable(16) %1) #7 comdat {
  %3 = alloca %class.b3Vector3, align 16
  %4 = alloca ptr, align 8
  %5 = alloca ptr, align 8
  store ptr %0, ptr %4, align 8, !tbaa !37
  store ptr %1, ptr %5, align 8, !tbaa !37
  %6 = load ptr, ptr %4, align 8, !tbaa !37
  %7 = getelementptr inbounds nuw %class.b3Vector3, ptr %6, i32 0, i32 0
  %8 = getelementptr inbounds [4 x float], ptr %7, i64 0, i64 0
  %9 = load float, ptr %8, align 16, !tbaa !41
  %10 = load ptr, ptr %5, align 8, !tbaa !37
  %11 = getelementptr inbounds nuw %class.b3Vector3, ptr %10, i32 0, i32 0
  %12 = getelementptr inbounds [4 x float], ptr %11, i64 0, i64 0
  %13 = load float, ptr %12, align 16, !tbaa !41
  %14 = fadd float %9, %13
  %15 = load ptr, ptr %4, align 8, !tbaa !37
  %16 = getelementptr inbounds nuw %class.b3Vector3, ptr %15, i32 0, i32 0
  %17 = getelementptr inbounds [4 x float], ptr %16, i64 0, i64 1
  %18 = load float, ptr %17, align 4, !tbaa !41
  %19 = load ptr, ptr %5, align 8, !tbaa !37
  %20 = getelementptr inbounds nuw %class.b3Vector3, ptr %19, i32 0, i32 0
  %21 = getelementptr inbounds [4 x float], ptr %20, i64 0, i64 1
  %22 = load float, ptr %21, align 4, !tbaa !41
  %23 = fadd float %18, %22
  %24 = load ptr, ptr %4, align 8, !tbaa !37
  %25 = getelementptr inbounds nuw %class.b3Vector3, ptr %24, i32 0, i32 0
  %26 = getelementptr inbounds [4 x float], ptr %25, i64 0, i64 2
  %27 = load float, ptr %26, align 8, !tbaa !41
  %28 = load ptr, ptr %5, align 8, !tbaa !37
  %29 = getelementptr inbounds nuw %class.b3Vector3, ptr %28, i32 0, i32 0
  %30 = getelementptr inbounds [4 x float], ptr %29, i64 0, i64 2
  %31 = load float, ptr %30, align 8, !tbaa !41
  %32 = fadd float %27, %31
  %33 = call { <2 x float>, <2 x float> } @_Z13b3MakeVector3fff(float noundef %14, float noundef %23, float noundef %32)
  %34 = getelementptr inbounds nuw %class.b3Vector3, ptr %3, i32 0, i32 0
  %35 = getelementptr inbounds nuw %union.anon, ptr %34, i32 0, i32 0
  %36 = getelementptr inbounds nuw { <2 x float>, <2 x float> }, ptr %35, i32 0, i32 0
  %37 = extractvalue { <2 x float>, <2 x float> } %33, 0
  store <2 x float> %37, ptr %36, align 16
  %38 = getelementptr inbounds nuw { <2 x float>, <2 x float> }, ptr %35, i32 0, i32 1
  %39 = extractvalue { <2 x float>, <2 x float> } %33, 1
  store <2 x float> %39, ptr %38, align 8
  %40 = getelementptr inbounds nuw %class.b3Vector3, ptr %3, i32 0, i32 0
  %41 = getelementptr inbounds nuw %union.anon, ptr %40, i32 0, i32 0
  %42 = load { <2 x float>, <2 x float> }, ptr %41, align 16
  ret { <2 x float>, <2 x float> } %42
}

; Function Attrs: inlinehint mustprogress nounwind uwtable
define linkonce_odr dso_local { <2 x float>, <2 x float> } @_ZmiRK9b3Vector3S1_(ptr noundef nonnull align 16 dereferenceable(16) %0, ptr noundef nonnull align 16 dereferenceable(16) %1) #7 comdat {
  %3 = alloca %class.b3Vector3, align 16
  %4 = alloca ptr, align 8
  %5 = alloca ptr, align 8
  store ptr %0, ptr %4, align 8, !tbaa !37
  store ptr %1, ptr %5, align 8, !tbaa !37
  %6 = load ptr, ptr %4, align 8, !tbaa !37
  %7 = getelementptr inbounds nuw %class.b3Vector3, ptr %6, i32 0, i32 0
  %8 = getelementptr inbounds [4 x float], ptr %7, i64 0, i64 0
  %9 = load float, ptr %8, align 16, !tbaa !41
  %10 = load ptr, ptr %5, align 8, !tbaa !37
  %11 = getelementptr inbounds nuw %class.b3Vector3, ptr %10, i32 0, i32 0
  %12 = getelementptr inbounds [4 x float], ptr %11, i64 0, i64 0
  %13 = load float, ptr %12, align 16, !tbaa !41
  %14 = fsub float %9, %13
  %15 = load ptr, ptr %4, align 8, !tbaa !37
  %16 = getelementptr inbounds nuw %class.b3Vector3, ptr %15, i32 0, i32 0
  %17 = getelementptr inbounds [4 x float], ptr %16, i64 0, i64 1
  %18 = load float, ptr %17, align 4, !tbaa !41
  %19 = load ptr, ptr %5, align 8, !tbaa !37
  %20 = getelementptr inbounds nuw %class.b3Vector3, ptr %19, i32 0, i32 0
  %21 = getelementptr inbounds [4 x float], ptr %20, i64 0, i64 1
  %22 = load float, ptr %21, align 4, !tbaa !41
  %23 = fsub float %18, %22
  %24 = load ptr, ptr %4, align 8, !tbaa !37
  %25 = getelementptr inbounds nuw %class.b3Vector3, ptr %24, i32 0, i32 0
  %26 = getelementptr inbounds [4 x float], ptr %25, i64 0, i64 2
  %27 = load float, ptr %26, align 8, !tbaa !41
  %28 = load ptr, ptr %5, align 8, !tbaa !37
  %29 = getelementptr inbounds nuw %class.b3Vector3, ptr %28, i32 0, i32 0
  %30 = getelementptr inbounds [4 x float], ptr %29, i64 0, i64 2
  %31 = load float, ptr %30, align 8, !tbaa !41
  %32 = fsub float %27, %31
  %33 = call { <2 x float>, <2 x float> } @_Z13b3MakeVector3fff(float noundef %14, float noundef %23, float noundef %32)
  %34 = getelementptr inbounds nuw %class.b3Vector3, ptr %3, i32 0, i32 0
  %35 = getelementptr inbounds nuw %union.anon, ptr %34, i32 0, i32 0
  %36 = getelementptr inbounds nuw { <2 x float>, <2 x float> }, ptr %35, i32 0, i32 0
  %37 = extractvalue { <2 x float>, <2 x float> } %33, 0
  store <2 x float> %37, ptr %36, align 16
  %38 = getelementptr inbounds nuw { <2 x float>, <2 x float> }, ptr %35, i32 0, i32 1
  %39 = extractvalue { <2 x float>, <2 x float> } %33, 1
  store <2 x float> %39, ptr %38, align 8
  %40 = getelementptr inbounds nuw %class.b3Vector3, ptr %3, i32 0, i32 0
  %41 = getelementptr inbounds nuw %union.anon, ptr %40, i32 0, i32 0
  %42 = load { <2 x float>, <2 x float> }, ptr %41, align 16
  ret { <2 x float>, <2 x float> } %42
}

; Function Attrs: inlinehint mustprogress nounwind uwtable
define linkonce_odr dso_local { <2 x float>, <2 x float> } @_Z13b3MakeVector3fff(float noundef %0, float noundef %1, float noundef %2) #1 comdat {
  %4 = alloca %class.b3Vector3, align 16
  %5 = alloca float, align 4
  %6 = alloca float, align 4
  %7 = alloca float, align 4
  store float %0, ptr %5, align 4, !tbaa !29
  store float %1, ptr %6, align 4, !tbaa !29
  store float %2, ptr %7, align 4, !tbaa !29
  call void @_ZN9b3Vector38setValueERKfS1_S1_(ptr noundef nonnull align 16 dereferenceable(16) %4, ptr noundef nonnull align 4 dereferenceable(4) %5, ptr noundef nonnull align 4 dereferenceable(4) %6, ptr noundef nonnull align 4 dereferenceable(4) %7)
  %8 = getelementptr inbounds nuw %class.b3Vector3, ptr %4, i32 0, i32 0
  %9 = getelementptr inbounds nuw %union.anon, ptr %8, i32 0, i32 0
  %10 = load { <2 x float>, <2 x float> }, ptr %9, align 16
  ret { <2 x float>, <2 x float> } %10
}

; Function Attrs: mustprogress uwtable
define dso_local void @_ZN14b3QuantizedBvh21setQuantizationValuesERK9b3Vector3S2_f(ptr noundef nonnull align 16 dereferenceable(252) %0, ptr noundef nonnull align 16 dereferenceable(16) %1, ptr noundef nonnull align 16 dereferenceable(16) %2, float noundef %3) #6 align 2 {
  %5 = alloca ptr, align 8
  %6 = alloca ptr, align 8
  %7 = alloca ptr, align 8
  %8 = alloca float, align 4
  %9 = alloca %class.b3Vector3, align 16
  %10 = alloca %class.b3Vector3, align 16
  %11 = alloca %class.b3Vector3, align 16
  %12 = alloca %class.b3Vector3, align 16
  %13 = alloca %class.b3Vector3, align 16
  %14 = alloca %class.b3Vector3, align 16
  store ptr %0, ptr %5, align 8, !tbaa !4
  store ptr %1, ptr %6, align 8, !tbaa !37
  store ptr %2, ptr %7, align 8, !tbaa !37
  store float %3, ptr %8, align 4, !tbaa !29
  %15 = load ptr, ptr %5, align 8
  call void @llvm.lifetime.start.p0(i64 16, ptr %9) #14
  %16 = load float, ptr %8, align 4, !tbaa !29
  %17 = load float, ptr %8, align 4, !tbaa !29
  %18 = load float, ptr %8, align 4, !tbaa !29
  %19 = call { <2 x float>, <2 x float> } @_Z13b3MakeVector3fff(float noundef %16, float noundef %17, float noundef %18)
  %20 = getelementptr inbounds nuw %class.b3Vector3, ptr %9, i32 0, i32 0
  %21 = getelementptr inbounds nuw %union.anon, ptr %20, i32 0, i32 0
  %22 = getelementptr inbounds nuw { <2 x float>, <2 x float> }, ptr %21, i32 0, i32 0
  %23 = extractvalue { <2 x float>, <2 x float> } %19, 0
  store <2 x float> %23, ptr %22, align 16
  %24 = getelementptr inbounds nuw { <2 x float>, <2 x float> }, ptr %21, i32 0, i32 1
  %25 = extractvalue { <2 x float>, <2 x float> } %19, 1
  store <2 x float> %25, ptr %24, align 8
  call void @llvm.lifetime.start.p0(i64 16, ptr %10) #14
  %26 = load ptr, ptr %6, align 8, !tbaa !37
  %27 = call { <2 x float>, <2 x float> } @_ZmiRK9b3Vector3S1_(ptr noundef nonnull align 16 dereferenceable(16) %26, ptr noundef nonnull align 16 dereferenceable(16) %9)
  %28 = getelementptr inbounds nuw %class.b3Vector3, ptr %10, i32 0, i32 0
  %29 = getelementptr inbounds nuw %union.anon, ptr %28, i32 0, i32 0
  %30 = getelementptr inbounds nuw { <2 x float>, <2 x float> }, ptr %29, i32 0, i32 0
  %31 = extractvalue { <2 x float>, <2 x float> } %27, 0
  store <2 x float> %31, ptr %30, align 16
  %32 = getelementptr inbounds nuw { <2 x float>, <2 x float> }, ptr %29, i32 0, i32 1
  %33 = extractvalue { <2 x float>, <2 x float> } %27, 1
  store <2 x float> %33, ptr %32, align 8
  %34 = getelementptr inbounds nuw %class.b3QuantizedBvh, ptr %15, i32 0, i32 2
  call void @llvm.memcpy.p0.p0.i64(ptr align 16 %34, ptr align 16 %10, i64 16, i1 false), !tbaa.struct !63
  call void @llvm.lifetime.end.p0(i64 16, ptr %10) #14
  call void @llvm.lifetime.start.p0(i64 16, ptr %11) #14
  %35 = load ptr, ptr %7, align 8, !tbaa !37
  %36 = call { <2 x float>, <2 x float> } @_ZplRK9b3Vector3S1_(ptr noundef nonnull align 16 dereferenceable(16) %35, ptr noundef nonnull align 16 dereferenceable(16) %9)
  %37 = getelementptr inbounds nuw %class.b3Vector3, ptr %11, i32 0, i32 0
  %38 = getelementptr inbounds nuw %union.anon, ptr %37, i32 0, i32 0
  %39 = getelementptr inbounds nuw { <2 x float>, <2 x float> }, ptr %38, i32 0, i32 0
  %40 = extractvalue { <2 x float>, <2 x float> } %36, 0
  store <2 x float> %40, ptr %39, align 16
  %41 = getelementptr inbounds nuw { <2 x float>, <2 x float> }, ptr %38, i32 0, i32 1
  %42 = extractvalue { <2 x float>, <2 x float> } %36, 1
  store <2 x float> %42, ptr %41, align 8
  %43 = getelementptr inbounds nuw %class.b3QuantizedBvh, ptr %15, i32 0, i32 3
  call void @llvm.memcpy.p0.p0.i64(ptr align 16 %43, ptr align 16 %11, i64 16, i1 false), !tbaa.struct !63
  call void @llvm.lifetime.end.p0(i64 16, ptr %11) #14
  call void @llvm.lifetime.start.p0(i64 16, ptr %12) #14
  %44 = getelementptr inbounds nuw %class.b3QuantizedBvh, ptr %15, i32 0, i32 3
  %45 = getelementptr inbounds nuw %class.b3QuantizedBvh, ptr %15, i32 0, i32 2
  %46 = call { <2 x float>, <2 x float> } @_ZmiRK9b3Vector3S1_(ptr noundef nonnull align 16 dereferenceable(16) %44, ptr noundef nonnull align 16 dereferenceable(16) %45)
  %47 = getelementptr inbounds nuw %class.b3Vector3, ptr %12, i32 0, i32 0
  %48 = getelementptr inbounds nuw %union.anon, ptr %47, i32 0, i32 0
  %49 = getelementptr inbounds nuw { <2 x float>, <2 x float> }, ptr %48, i32 0, i32 0
  %50 = extractvalue { <2 x float>, <2 x float> } %46, 0
  store <2 x float> %50, ptr %49, align 16
  %51 = getelementptr inbounds nuw { <2 x float>, <2 x float> }, ptr %48, i32 0, i32 1
  %52 = extractvalue { <2 x float>, <2 x float> } %46, 1
  store <2 x float> %52, ptr %51, align 8
  call void @llvm.lifetime.start.p0(i64 16, ptr %13) #14
  call void @llvm.lifetime.start.p0(i64 16, ptr %14) #14
  %53 = call { <2 x float>, <2 x float> } @_Z13b3MakeVector3fff(float noundef 6.553300e+04, float noundef 6.553300e+04, float noundef 6.553300e+04)
  %54 = getelementptr inbounds nuw %class.b3Vector3, ptr %14, i32 0, i32 0
  %55 = getelementptr inbounds nuw %union.anon, ptr %54, i32 0, i32 0
  %56 = getelementptr inbounds nuw { <2 x float>, <2 x float> }, ptr %55, i32 0, i32 0
  %57 = extractvalue { <2 x float>, <2 x float> } %53, 0
  store <2 x float> %57, ptr %56, align 16
  %58 = getelementptr inbounds nuw { <2 x float>, <2 x float> }, ptr %55, i32 0, i32 1
  %59 = extractvalue { <2 x float>, <2 x float> } %53, 1
  store <2 x float> %59, ptr %58, align 8
  %60 = call { <2 x float>, <2 x float> } @_ZdvRK9b3Vector3S1_(ptr noundef nonnull align 16 dereferenceable(16) %14, ptr noundef nonnull align 16 dereferenceable(16) %12)
  %61 = getelementptr inbounds nuw %class.b3Vector3, ptr %13, i32 0, i32 0
  %62 = getelementptr inbounds nuw %union.anon, ptr %61, i32 0, i32 0
  %63 = getelementptr inbounds nuw { <2 x float>, <2 x float> }, ptr %62, i32 0, i32 0
  %64 = extractvalue { <2 x float>, <2 x float> } %60, 0
  store <2 x float> %64, ptr %63, align 16
  %65 = getelementptr inbounds nuw { <2 x float>, <2 x float> }, ptr %62, i32 0, i32 1
  %66 = extractvalue { <2 x float>, <2 x float> } %60, 1
  store <2 x float> %66, ptr %65, align 8
  %67 = getelementptr inbounds nuw %class.b3QuantizedBvh, ptr %15, i32 0, i32 4
  call void @llvm.memcpy.p0.p0.i64(ptr align 16 %67, ptr align 16 %13, i64 16, i1 false), !tbaa.struct !63
  call void @llvm.lifetime.end.p0(i64 16, ptr %14) #14
  call void @llvm.lifetime.end.p0(i64 16, ptr %13) #14
  %68 = getelementptr inbounds nuw %class.b3QuantizedBvh, ptr %15, i32 0, i32 7
  store i8 1, ptr %68, align 8, !tbaa !26
  call void @llvm.lifetime.end.p0(i64 16, ptr %12) #14
  call void @llvm.lifetime.end.p0(i64 16, ptr %9) #14
  ret void
}