; Function Attrs: mustprogress nofree norecurse nosync nounwind willreturn memory(argmem: readwrite) uwtable
define dso_local void @_ZN14b3QuantizedBvh21setQuantizationValuesERK9b3Vector3S2_f(ptr noundef nonnull writeonly align 16 captures(none) dereferenceable(252) initializes((16, 64), (72, 73)) %0, ptr noundef nonnull readonly align 16 captures(none) dereferenceable(16) %1, ptr noundef nonnull readonly align 16 captures(none) dereferenceable(16) %2, float noundef %3) local_unnamed_addr #6 align 2 {
  %5 = load float, ptr %1, align 16, !tbaa !39
  %6 = fsub float %5, %3
  %7 = getelementptr inbounds nuw i8, ptr %1, i64 4
  %8 = load float, ptr %7, align 4, !tbaa !39
  %9 = fsub float %8, %3
  %10 = getelementptr inbounds nuw i8, ptr %1, i64 8
  %11 = load float, ptr %10, align 8, !tbaa !39
  %12 = fsub float %11, %3
  %.sroa.0.0.vec.insert.i.i = insertelement <2 x float> poison, float %6, i64 0
  %.sroa.0.4.vec.insert.i.i = insertelement <2 x float> %.sroa.0.0.vec.insert.i.i, float %9, i64 1
  %.sroa.3.12.vec.insert.i.i = insertelement <2 x float> <float poison, float 0.000000e+00>, float %12, i64 0
  %13 = getelementptr inbounds nuw i8, ptr %0, i64 16
  store <2 x float> %.sroa.0.4.vec.insert.i.i, ptr %13, align 16
  %.sroa.44.0..sroa_idx = getelementptr inbounds nuw i8, ptr %0, i64 24
  store <2 x float> %.sroa.3.12.vec.insert.i.i, ptr %.sroa.44.0..sroa_idx, align 8, !tbaa !39
  %14 = load float, ptr %2, align 16, !tbaa !39
  %15 = fadd float %3, %14
  %16 = getelementptr inbounds nuw i8, ptr %2, i64 4
  %17 = load float, ptr %16, align 4, !tbaa !39
  %18 = fadd float %3, %17
  %19 = getelementptr inbounds nuw i8, ptr %2, i64 8
  %20 = load float, ptr %19, align 8, !tbaa !39
  %21 = fadd float %3, %20
  %.sroa.0.0.vec.insert.i.i10 = insertelement <2 x float> poison, float %15, i64 0
  %.sroa.0.4.vec.insert.i.i11 = insertelement <2 x float> %.sroa.0.0.vec.insert.i.i10, float %18, i64 1
  %.sroa.3.12.vec.insert.i.i12 = insertelement <2 x float> <float poison, float 0.000000e+00>, float %21, i64 0
  %22 = getelementptr inbounds nuw i8, ptr %0, i64 32
  store <2 x float> %.sroa.0.4.vec.insert.i.i11, ptr %22, align 16
  %.sroa.42.0..sroa_idx = getelementptr inbounds nuw i8, ptr %0, i64 40
  store <2 x float> %.sroa.3.12.vec.insert.i.i12, ptr %.sroa.42.0..sroa_idx, align 8, !tbaa !39
  %23 = fsub float %15, %6
  %24 = fsub float %18, %9
  %25 = fsub float %21, %12
  %26 = fdiv float 6.553300e+04, %23
  %27 = fdiv float 6.553300e+04, %24
  %28 = fdiv float 6.553300e+04, %25
  %.sroa.0.0.vec.insert.i.i20 = insertelement <2 x float> poison, float %26, i64 0
  %.sroa.0.4.vec.insert.i.i21 = insertelement <2 x float> %.sroa.0.0.vec.insert.i.i20, float %27, i64 1
  %.sroa.3.12.vec.insert.i.i22 = insertelement <2 x float> <float poison, float 0.000000e+00>, float %28, i64 0
  %29 = getelementptr inbounds nuw i8, ptr %0, i64 48
  store <2 x float> %.sroa.0.4.vec.insert.i.i21, ptr %29, align 16
  %.sroa.4.0..sroa_idx = getelementptr inbounds nuw i8, ptr %0, i64 56
  store <2 x float> %.sroa.3.12.vec.insert.i.i22, ptr %.sroa.4.0..sroa_idx, align 8, !tbaa !39
  %30 = getelementptr inbounds nuw i8, ptr %0, i64 72
  store i8 1, ptr %30, align 8, !tbaa !24
  ret void
}